target datalayout = "e-m:e-p270:32:32-p271:32:32-p272:64:64-i64:64-i128:128-f80:128-n8:16:32:64-S128"
target triple = "x86_64-unknown-linux-gnu"

%"class.std::__shared_count" = type { ptr }
%"class.std::shared_ptr.38" = type { %"class.std::__shared_ptr.39" }
%"class.std::__shared_ptr.39" = type { ptr, %"class.std::__shared_count" }
%"struct.arrow::TypeHolder" = type { ptr, %"class.std::shared_ptr.38" }
%"class.arrow::compute::CastOptions" = type <{ %"class.arrow::compute::FunctionOptions", %"struct.arrow::TypeHolder", i8, i8, i8, i8, i8, i8, [2 x i8] }>
%"class.arrow::compute::FunctionOptions" = type { ptr, ptr }

@_ZN5arrow7compute8internal12_GLOBAL__N_116kCastOptionsTypeE = internal global ptr null, align 8
@_ZTVN5arrow7compute11CastOptionsE = linkonce_odr unnamed_addr constant { [4 x ptr] } { [4 x ptr] [ptr null, ptr @_ZTIN5arrow7compute11CastOptionsE, ptr @_ZN5arrow7compute11CastOptionsD2Ev, ptr @_ZN5arrow7compute11CastOptionsD0Ev] }, comdat, align 8
@_ZTVN5arrow7compute15FunctionOptionsE = linkonce_odr unnamed_addr constant { [4 x ptr] } { [4 x ptr] [ptr null, ptr @_ZTIN5arrow7compute15FunctionOptionsE, ptr @_ZN5arrow7compute15FunctionOptionsD2Ev, ptr @_ZN5arrow7compute15FunctionOptionsD0Ev] }, comdat, align 8

; Function Attrs: mustprogress nounwind uwtable
define linkonce_odr void @_ZNSt14__shared_countILN9__gnu_cxx12_Lock_policyE2EEC2Ev(ptr noundef nonnull align 8 dereferenceable(8) %this) unnamed_addr #1 comdat align 2 {
entry:
  %this.addr = alloca ptr, align 8
  store ptr %this, ptr %this.addr, align 8
  %this1 = load ptr, ptr %this.addr, align 8
  %_M_pi = getelementptr inbounds %"class.std::__shared_count", ptr %this1, i32 0, i32 0
  store ptr null, ptr %_M_pi, align 8
  ret void
}

; Function Attrs: mustprogress nounwind uwtable
define linkonce_odr void @_ZNSt12__shared_ptrIN5arrow8DataTypeELN9__gnu_cxx12_Lock_policyE2EEC2Ev(ptr noundef nonnull align 8 dereferenceable(16) %this) unnamed_addr #1 comdat align 2 {
entry:
  %this.addr = alloca ptr, align 8
  store ptr %this, ptr %this.addr, align 8
  %this1 = load ptr, ptr %this.addr, align 8
  %_M_ptr = getelementptr inbounds %"class.std::__shared_ptr.39", ptr %this1, i32 0, i32 0
  store ptr null, ptr %_M_ptr, align 8
  %_M_refcount = getelementptr inbounds %"class.std::__shared_ptr.39", ptr %this1, i32 0, i32 1
  call void @_ZNSt14__shared_countILN9__gnu_cxx12_Lock_policyE2EEC2Ev(ptr noundef nonnull align 8 dereferenceable(8) %_M_refcount) #2
  ret void
}

; Function Attrs: mustprogress nounwind uwtable
define linkonce_odr void @_ZNSt10shared_ptrIN5arrow8DataTypeEEC2Ev(ptr noundef nonnull align 8 dereferenceable(16) %this) unnamed_addr #1 comdat align 2 {
entry:
  %this.addr = alloca ptr, align 8
  store ptr %this, ptr %this.addr, align 8
  %this1 = load ptr, ptr %this.addr, align 8
  call void @_ZNSt12__shared_ptrIN5arrow8DataTypeELN9__gnu_cxx12_Lock_policyE2EEC2Ev(ptr noundef nonnull align 8 dereferenceable(16) %this1) #2
  ret void
}

; Function Attrs: mustprogress nounwind uwtable
define linkonce_odr void @_ZN5arrow10TypeHolderC2Ev(ptr noundef nonnull align 8 dereferenceable(24) %this) unnamed_addr #1 comdat align 2 {
entry:
  %this.addr = alloca ptr, align 8
  store ptr %this, ptr %this.addr, align 8
  %this1 = load ptr, ptr %this.addr, align 8
  %type = getelementptr inbounds %"struct.arrow::TypeHolder", ptr %this1, i32 0, i32 0
  store ptr null, ptr %type, align 8
  %owned_type = getelementptr inbounds %"struct.arrow::TypeHolder", ptr %this1, i32 0, i32 1
  call void @_ZNSt10shared_ptrIN5arrow8DataTypeEEC2Ev(ptr noundef nonnull align 8 dereferenceable(16) %owned_type) #2
  ret void
}

; Function Attrs: mustprogress nounwind uwtable
define linkonce_odr void @_ZN5arrow7compute15FunctionOptionsC2EPKNS0_19FunctionOptionsTypeE(ptr noundef nonnull align 8 dereferenceable(16) %this, ptr noundef %type) unnamed_addr #1 comdat align 2 {
entry:
  %this.addr = alloca ptr, align 8
  %type.addr = alloca ptr, align 8
  store ptr %this, ptr %this.addr, align 8
  store ptr %type, ptr %type.addr, align 8
  %this1 = load ptr, ptr %this.addr, align 8
  store ptr getelementptr inbounds ({ [4 x ptr] }, ptr @_ZTVN5arrow7compute15FunctionOptionsE, i32 0, i32 0, i32 2), ptr %this1, align 8
  %options_type_ = getelementptr inbounds %"class.arrow::compute::FunctionOptions", ptr %this1, i32 0, i32 1
  %0 = load ptr, ptr %type.addr, align 8
  store ptr %0, ptr %options_type_, align 8
  ret void
}

; Function Attrs: mustprogress uwtable
define void @_ZN5arrow7compute11CastOptionsC2Eb(ptr noundef nonnull align 8 dereferenceable(46) %this, i1 noundef zeroext %safe) unnamed_addr #4 align 2 {
entry:
  %this.addr = alloca ptr, align 8
  %safe.addr = alloca i8, align 1
  store ptr %this, ptr %this.addr, align 8
  %frombool = zext i1 %safe to i8
  store i8 %frombool, ptr %safe.addr, align 1
  %this1 = load ptr, ptr %this.addr, align 8
  %0 = load ptr, ptr @_ZN5arrow7compute8internal12_GLOBAL__N_116kCastOptionsTypeE, align 8
  call void @_ZN5arrow7compute15FunctionOptionsC2EPKNS0_19FunctionOptionsTypeE(ptr noundef nonnull align 8 dereferenceable(16) %this1, ptr noundef %0)
  store ptr getelementptr inbounds ({ [4 x ptr] }, ptr @_ZTVN5arrow7compute11CastOptionsE, i32 0, i32 0, i32 2), ptr %this1, align 8
  %to_type = getelementptr inbounds %"class.arrow::compute::CastOptions", ptr %this1, i32 0, i32 1
  call void @_ZN5arrow10TypeHolderC2Ev(ptr noundef nonnull align 8 dereferenceable(24) %to_type) #2
  %allow_int_overflow = getelementptr inbounds %"class.arrow::compute::CastOptions", ptr %this1, i32 0, i32 2
  %1 = load i8, ptr %safe.addr, align 1
  %tobool = trunc i8 %1 to i1
  %lnot = xor i1 %tobool, true
  %frombool2 = zext i1 %lnot to i8
  store i8 %frombool2, ptr %allow_int_overflow, align 8
  %allow_time_truncate = getelementptr inbounds %"class.arrow::compute::CastOptions", ptr %this1, i32 0, i32 3
  %2 = load i8, ptr %safe.addr, align 1
  %tobool3 = trunc i8 %2 to i1
  %lnot4 = xor i1 %tobool3, true
  %frombool5 = zext i1 %lnot4 to i8
  store i8 %frombool5, ptr %allow_time_truncate, align 1
  %allow_time_overflow = getelementptr inbounds %"class.arrow::compute::CastOptions", ptr %this1, i32 0, i32 4
  %3 = load i8, ptr %safe.addr, align 1
  %tobool6 = trunc i8 %3 to i1
  %lnot7 = xor i1 %tobool6, true
  %frombool8 = zext i1 %lnot7 to i8
  store i8 %frombool8, ptr %allow_time_overflow, align 2
  %allow_decimal_truncate = getelementptr inbounds %"class.arrow::compute::CastOptions", ptr %this1, i32 0, i32 5
  %4 = load i8, ptr %safe.addr, align 1
  %tobool9 = trunc i8 %4 to i1
  %lnot10 = xor i1 %tobool9, true
  %frombool11 = zext i1 %lnot10 to i8
  store i8 %frombool11, ptr %allow_decimal_truncate, align 1
  %allow_float_truncate = getelementptr inbounds %"class.arrow::compute::CastOptions", ptr %this1, i32 0, i32 6
  %5 = load i8, ptr %safe.addr, align 1
  %tobool12 = trunc i8 %5 to i1
  %lnot13 = xor i1 %tobool12, true
  %frombool14 = zext i1 %lnot13 to i8
  store i8 %frombool14, ptr %allow_float_truncate, align 4
  %allow_invalid_utf8 = getelementptr inbounds %"class.arrow::compute::CastOptions", ptr %this1, i32 0, i32 7
  %6 = load i8, ptr %safe.addr, align 1
  %tobool15 = trunc i8 %6 to i1
  %lnot16 = xor i1 %tobool15, true
  %frombool17 = zext i1 %lnot16 to i8
  store i8 %frombool17, ptr %allow_invalid_utf8, align 1
  ret void
}