; Function Attrs: mustprogress nofree norecurse nosync nounwind willreturn memory(read, argmem: write, inaccessiblemem: none) uwtable
define void @_ZN5arrow7compute11CastOptionsC2Eb(ptr nocapture noundef nonnull writeonly align 8 dereferenceable(46) %this, i1 noundef zeroext %safe) unnamed_addr #5 align 2 {
entry:
  %0 = load ptr, ptr @_ZN5arrow7compute8internal12_GLOBAL__N_116kCastOptionsTypeE, align 8
  %options_type_.i = getelementptr inbounds i8, ptr %this, i64 8
  store ptr %0, ptr %options_type_.i, align 8
  store ptr getelementptr inbounds ({ [4 x ptr] }, ptr @_ZTVN5arrow7compute11CastOptionsE, i64 0, i32 0, i64 2), ptr %this, align 8
  %to_type = getelementptr inbounds i8, ptr %this, i64 16
  tail call void @llvm.memset.p0.i64(ptr noundef nonnull align 8 dereferenceable(24) %to_type, i8 0, i64 24, i1 false)
  %allow_int_overflow = getelementptr inbounds i8, ptr %this, i64 40
  %lnot = xor i1 %safe, true
  %frombool2 = zext i1 %lnot to i8
  tail call void @llvm.memset.p0.i64(ptr noundef nonnull align 8 dereferenceable(6) %allow_int_overflow, i8 %frombool2, i64 6, i1 false)
  ret void
}